target datalayout = "e-m:e-p270:32:32-p271:32:32-p272:64:64-i64:64-i128:128-f80:128-n8:16:32:64-S128"
target triple = "x86_64-pc-linux-gnu"

@pgStatXactCommit = internal global i32 0, align 4
@pgStatXactRollback = internal global i32 0, align 4

; Function Attrs: nounwind uwtable
define dso_local void @AtEOXact_PgStat_Database(i1 noundef zeroext %0, i1 noundef zeroext %1) #0 {
  %3 = alloca i8, align 1
  %4 = alloca i8, align 1
  %5 = zext i1 %0 to i8
  store i8 %5, ptr %3, align 1
  %6 = zext i1 %1 to i8
  store i8 %6, ptr %4, align 1
  %7 = load i8, ptr %4, align 1, !range !4, !noundef !5
  %8 = trunc i8 %7 to i1
  br i1 %8, label %19, label %9

9:                                                ; preds = %2
  %10 = load i8, ptr %3, align 1, !range !4, !noundef !5
  %11 = trunc i8 %10 to i1
  br i1 %11, label %12, label %15

12:                                               ; preds = %9
  %13 = load i32, ptr @pgStatXactCommit, align 4
  %14 = add i32 %13, 1
  store i32 %14, ptr @pgStatXactCommit, align 4
  br label %18

15:                                               ; preds = %9
  %16 = load i32, ptr @pgStatXactRollback, align 4
  %17 = add i32 %16, 1
  store i32 %17, ptr @pgStatXactRollback, align 4
  br label %18

18:                                               ; preds = %15, %12
  br label %19

19:                                               ; preds = %18, %2
  ret void
}