; Function Attrs: mustprogress nofree norecurse nosync nounwind willreturn memory(readwrite, inaccessiblemem: none) uwtable
define dso_local void @AtEOXact_PgStat_Database(i1 noundef zeroext %0, i1 noundef zeroext %1) local_unnamed_addr #3 {
  br i1 %1, label %5, label %.sink.split

.sink.split:                                      ; preds = %2
  %pgStatXactCommit.pgStatXactRollback = select i1 %0, ptr @pgStatXactCommit, ptr @pgStatXactRollback
  %3 = load i32, ptr %pgStatXactCommit.pgStatXactRollback, align 4
  %4 = add i32 %3, 1
  store i32 %4, ptr %pgStatXactCommit.pgStatXactRollback, align 4
  br label %5

5:                                                ; preds = %.sink.split, %2
  ret void
}